target datalayout = "e-m:e-p270:32:32-p271:32:32-p272:64:64-i64:64-i128:128-f80:128-n8:16:32:64-S128"
target triple = "x86_64-pc-linux-gnu"

%"class.std::__cxx11::basic_string" = type { %"struct.std::__cxx11::basic_string<char>::_Alloc_hider", i64, %union.anon }
%"struct.std::__cxx11::basic_string<char>::_Alloc_hider" = type { ptr }
%union.anon = type { i64, [8 x i8] }
%"struct.std::pair" = type { %"struct.open_spiel::chess_common::Square", i32 }
%"struct.open_spiel::chess_common::Square" = type { i8, i8 }

@.str = private unnamed_addr constant [137 x i8] c"generated/home/dtcxzyw/WorkSpace/Projects/compilers/llvm-opt-benchmark/bench/openspiel/open_spiel/open_spiel/games/chess/chess_common.cc\00", align 1
@.str.1 = private unnamed_addr constant [2 x i8] c":\00", align 1
@.str.2 = private unnamed_addr constant [2 x i8] c" \00", align 1
@.str.3 = private unnamed_addr constant [8 x i8] c"xy >= 0\00", align 1
@.str.4 = private unnamed_addr constant [4 x i8] c"\0Axy\00", align 1
@.str.5 = private unnamed_addr constant [4 x i8] c" = \00", align 1
@.str.6 = private unnamed_addr constant [7 x i8] c", 0 = \00", align 1
@.str.7 = private unnamed_addr constant [29 x i8] c"xy < board_size * board_size\00", align 1
@.str.8 = private unnamed_addr constant [29 x i8] c", board_size * board_size = \00", align 1
@.str.9 = private unnamed_addr constant [23 x i8] c"destination_index >= 0\00", align 1
@.str.10 = private unnamed_addr constant [19 x i8] c"\0Adestination_index\00", align 1
@.str.11 = private unnamed_addr constant [45 x i8] c"destination_index < num_actions_destinations\00", align 1
@.str.12 = private unnamed_addr constant [30 x i8] c", num_actions_destinations = \00", align 1

; Function Attrs: mustprogress nounwind uwtable
define linkonce_odr void @_ZNSt4pairIN10open_spiel12chess_common6SquareEiEC2IS2_RiTnNSt9enable_ifIXaaclsr5_PCCPE22_MoveConstructiblePairIT_T0_EEclsr5_PCCPE30_ImplicitlyMoveConvertiblePairIS7_S8_EEEbE4typeELb1EEEOS7_OS8_(ptr noundef nonnull align 4 dereferenceable(8) %0, ptr noundef nonnull align 1 dereferenceable(2) %1, ptr noundef nonnull align 4 dereferenceable(4) %2) unnamed_addr #6 comdat align 2 {
  %4 = alloca ptr, align 8
  %5 = alloca ptr, align 8
  %6 = alloca ptr, align 8
  store ptr %0, ptr %4, align 8
  store ptr %1, ptr %5, align 8
  store ptr %2, ptr %6, align 8
  %7 = load ptr, ptr %4, align 8
  %8 = getelementptr inbounds nuw %"struct.std::pair", ptr %7, i32 0, i32 0
  %9 = load ptr, ptr %5, align 8
  call void @llvm.memcpy.p0.p0.i64(ptr align 4 %8, ptr align 1 %9, i64 2, i1 false)
  %10 = getelementptr inbounds nuw %"struct.std::pair", ptr %7, i32 0, i32 1
  %11 = load ptr, ptr %6, align 8
  %12 = load i32, ptr %11, align 4
  store i32 %12, ptr %10, align 4
  ret void
}

; Function Attrs: mustprogress uwtable
define linkonce_odr i64 @_ZSt9make_pairIN10open_spiel12chess_common6SquareERiESt4pairINSt25__strip_reference_wrapperINSt5decayIT_E4typeEE6__typeENS5_INS6_IT0_E4typeEE6__typeEEOS7_OSC_(ptr noundef nonnull align 1 dereferenceable(2) %0, ptr noundef nonnull align 4 dereferenceable(4) %1) #4 comdat {
  %3 = alloca %"struct.std::pair", align 4
  %4 = alloca ptr, align 8
  %5 = alloca ptr, align 8
  store ptr %0, ptr %4, align 8
  store ptr %1, ptr %5, align 8
  %6 = load ptr, ptr %4, align 8
  %7 = load ptr, ptr %5, align 8
  call void @_ZNSt4pairIN10open_spiel12chess_common6SquareEiEC2IS2_RiTnNSt9enable_ifIXaaclsr5_PCCPE22_MoveConstructiblePairIT_T0_EEclsr5_PCCPE30_ImplicitlyMoveConvertiblePairIS7_S8_EEEbE4typeELb1EEEOS7_OS8_(ptr noundef nonnull align 4 dereferenceable(8) %3, ptr noundef nonnull align 1 dereferenceable(2) %6, ptr noundef nonnull align 4 dereferenceable(4) %7)
  %8 = load i64, ptr %3, align 4
  ret i64 %8
}

; Function Attrs: mustprogress uwtable
define i64 @_ZN10open_spiel12chess_common19DecodeNetworkTargetEiii(i32 noundef %0, i32 noundef %1, i32 noundef %2) #4 personality ptr @__gxx_personality_v0 {
  %4 = alloca %"struct.std::pair", align 4
  %5 = alloca i32, align 4
  %6 = alloca i32, align 4
  %7 = alloca i32, align 4
  %8 = alloca i32, align 4
  %9 = alloca i32, align 4
  %10 = alloca i32, align 4
  %11 = alloca %"class.std::__cxx11::basic_string", align 8
  %12 = alloca i32, align 4
  %13 = alloca ptr, align 8
  %14 = alloca i32, align 4
  %15 = alloca i32, align 4
  %16 = alloca i32, align 4
  %17 = alloca %"class.std::__cxx11::basic_string", align 8
  %18 = alloca i32, align 4
  %19 = alloca i8, align 1
  %20 = alloca i8, align 1
  %21 = alloca i32, align 4
  %22 = alloca i32, align 4
  %23 = alloca i32, align 4
  %24 = alloca %"class.std::__cxx11::basic_string", align 8
  %25 = alloca i32, align 4
  %26 = alloca i32, align 4
  %27 = alloca i32, align 4
  %28 = alloca %"class.std::__cxx11::basic_string", align 8
  %29 = alloca i32, align 4
  %30 = alloca %"struct.open_spiel::chess_common::Square", align 1
  store i32 %0, ptr %5, align 4
  store i32 %1, ptr %6, align 4
  store i32 %2, ptr %7, align 4
  %31 = load i32, ptr %5, align 4
  %32 = load i32, ptr %7, align 4
  %33 = sdiv i32 %31, %32
  store i32 %33, ptr %8, align 4
  br label %34

34:                                               ; preds = %3
  %35 = load i32, ptr %8, align 4
  store i32 %35, ptr %9, align 4
  store i32 0, ptr %10, align 4
  %36 = load i32, ptr %9, align 4
  %37 = load i32, ptr %10, align 4
  %38 = icmp sge i32 %36, %37
  br i1 %38, label %45, label %39

39:                                               ; preds = %34
  store i32 132, ptr %12, align 4
  call void @_ZN10open_spiel8internal11SpielStrCatIJRA137_KcRA2_S2_iS6_RA8_S2_RA4_S2_SA_RiRA7_S2_SB_EEENSt7__cxx1112basic_stringIcSt11char_traitsIcESaIcEEEDpOT_(ptr dead_on_unwind writable sret(%"class.std::__cxx11::basic_string") align 8 %11, ptr noundef nonnull align 1 dereferenceable(137) @.str, ptr noundef nonnull align 1 dereferenceable(2) @.str.1, ptr noundef nonnull align 4 dereferenceable(4) %12, ptr noundef nonnull align 1 dereferenceable(2) @.str.2, ptr noundef nonnull align 1 dereferenceable(8) @.str.3, ptr noundef nonnull align 1 dereferenceable(4) @.str.4, ptr noundef nonnull align 1 dereferenceable(4) @.str.5, ptr noundef nonnull align 4 dereferenceable(4) %9, ptr noundef nonnull align 1 dereferenceable(7) @.str.6, ptr noundef nonnull align 4 dereferenceable(4) %10)
  invoke void @_ZN10open_spiel15SpielFatalErrorERKNSt7__cxx1112basic_stringIcSt11char_traitsIcESaIcEEE(ptr noundef nonnull align 8 dereferenceable(32) %11) #10
          to label %40 unwind label %41

40:                                               ; preds = %39
  unreachable

41:                                               ; preds = %39
  %42 = landingpad { ptr, i32 }
          cleanup
  %43 = extractvalue { ptr, i32 } %42, 0
  store ptr %43, ptr %13, align 8
  %44 = extractvalue { ptr, i32 } %42, 1
  store i32 %44, ptr %14, align 4
  call void @_ZNSt7__cxx1112basic_stringIcSt11char_traitsIcESaIcEED1Ev(ptr noundef nonnull align 8 dereferenceable(32) %11) #3
  br label %107

45:                                               ; preds = %34
  br label %46

46:                                               ; preds = %45
  br label %47

47:                                               ; preds = %46
  %48 = load i32, ptr %8, align 4
  store i32 %48, ptr %15, align 4
  %49 = load i32, ptr %6, align 4
  %50 = load i32, ptr %6, align 4
  %51 = mul nsw i32 %49, %50
  store i32 %51, ptr %16, align 4
  %52 = load i32, ptr %15, align 4
  %53 = load i32, ptr %16, align 4
  %54 = icmp slt i32 %52, %53
  br i1 %54, label %61, label %55

55:                                               ; preds = %47
  store i32 133, ptr %18, align 4
  call void @_ZN10open_spiel8internal11SpielStrCatIJRA137_KcRA2_S2_iS6_RA29_S2_RA4_S2_SA_RiS8_SB_EEENSt7__cxx1112basic_stringIcSt11char_traitsIcESaIcEEEDpOT_(ptr dead_on_unwind writable sret(%"class.std::__cxx11::basic_string") align 8 %17, ptr noundef nonnull align 1 dereferenceable(137) @.str, ptr noundef nonnull align 1 dereferenceable(2) @.str.1, ptr noundef nonnull align 4 dereferenceable(4) %18, ptr noundef nonnull align 1 dereferenceable(2) @.str.2, ptr noundef nonnull align 1 dereferenceable(29) @.str.7, ptr noundef nonnull align 1 dereferenceable(4) @.str.4, ptr noundef nonnull align 1 dereferenceable(4) @.str.5, ptr noundef nonnull align 4 dereferenceable(4) %15, ptr noundef nonnull align 1 dereferenceable(29) @.str.8, ptr noundef nonnull align 4 dereferenceable(4) %16)
  invoke void @_ZN10open_spiel15SpielFatalErrorERKNSt7__cxx1112basic_stringIcSt11char_traitsIcESaIcEEE(ptr noundef nonnull align 8 dereferenceable(32) %17) #10
          to label %56 unwind label %57

56:                                               ; preds = %55
  unreachable

57:                                               ; preds = %55
  %58 = landingpad { ptr, i32 }
          cleanup
  %59 = extractvalue { ptr, i32 } %58, 0
  store ptr %59, ptr %13, align 8
  %60 = extractvalue { ptr, i32 } %58, 1
  store i32 %60, ptr %14, align 4
  call void @_ZNSt7__cxx1112basic_stringIcSt11char_traitsIcESaIcEED1Ev(ptr noundef nonnull align 8 dereferenceable(32) %17) #3
  br label %107

61:                                               ; preds = %47
  br label %62

62:                                               ; preds = %61
  %63 = load i32, ptr %8, align 4
  %64 = load i32, ptr %6, align 4
  %65 = sdiv i32 %63, %64
  %66 = trunc i32 %65 to i8
  store i8 %66, ptr %19, align 1
  %67 = load i32, ptr %8, align 4
  %68 = load i32, ptr %6, align 4
  %69 = srem i32 %67, %68
  %70 = trunc i32 %69 to i8
  store i8 %70, ptr %20, align 1
  %71 = load i32, ptr %5, align 4
  %72 = load i32, ptr %7, align 4
  %73 = srem i32 %71, %72
  store i32 %73, ptr %21, align 4
  br label %74

74:                                               ; preds = %62
  %75 = load i32, ptr %21, align 4
  store i32 %75, ptr %22, align 4
  store i32 0, ptr %23, align 4
  %76 = load i32, ptr %22, align 4
  %77 = load i32, ptr %23, align 4
  %78 = icmp sge i32 %76, %77
  br i1 %78, label %85, label %79

79:                                               ; preds = %74
  store i32 137, ptr %25, align 4
  call void @_ZN10open_spiel8internal11SpielStrCatIJRA137_KcRA2_S2_iS6_RA23_S2_RA19_S2_RA4_S2_RiRA7_S2_SD_EEENSt7__cxx1112basic_stringIcSt11char_traitsIcESaIcEEEDpOT_(ptr dead_on_unwind writable sret(%"class.std::__cxx11::basic_string") align 8 %24, ptr noundef nonnull align 1 dereferenceable(137) @.str, ptr noundef nonnull align 1 dereferenceable(2) @.str.1, ptr noundef nonnull align 4 dereferenceable(4) %25, ptr noundef nonnull align 1 dereferenceable(2) @.str.2, ptr noundef nonnull align 1 dereferenceable(23) @.str.9, ptr noundef nonnull align 1 dereferenceable(19) @.str.10, ptr noundef nonnull align 1 dereferenceable(4) @.str.5, ptr noundef nonnull align 4 dereferenceable(4) %22, ptr noundef nonnull align 1 dereferenceable(7) @.str.6, ptr noundef nonnull align 4 dereferenceable(4) %23)
  invoke void @_ZN10open_spiel15SpielFatalErrorERKNSt7__cxx1112basic_stringIcSt11char_traitsIcESaIcEEE(ptr noundef nonnull align 8 dereferenceable(32) %24) #10
          to label %80 unwind label %81

80:                                               ; preds = %79
  unreachable

81:                                               ; preds = %79
  %82 = landingpad { ptr, i32 }
          cleanup
  %83 = extractvalue { ptr, i32 } %82, 0
  store ptr %83, ptr %13, align 8
  %84 = extractvalue { ptr, i32 } %82, 1
  store i32 %84, ptr %14, align 4
  call void @_ZNSt7__cxx1112basic_stringIcSt11char_traitsIcESaIcEED1Ev(ptr noundef nonnull align 8 dereferenceable(32) %24) #3
  br label %107

85:                                               ; preds = %74
  br label %86

86:                                               ; preds = %85
  br label %87

87:                                               ; preds = %86
  %88 = load i32, ptr %21, align 4
  store i32 %88, ptr %26, align 4
  %89 = load i32, ptr %7, align 4
  store i32 %89, ptr %27, align 4
  %90 = load i32, ptr %26, align 4
  %91 = load i32, ptr %27, align 4
  %92 = icmp slt i32 %90, %91
  br i1 %92, label %99, label %93

93:                                               ; preds = %87
  store i32 138, ptr %29, align 4
  call void @_ZN10open_spiel8internal11SpielStrCatIJRA137_KcRA2_S2_iS6_RA45_S2_RA19_S2_RA4_S2_RiRA30_S2_SD_EEENSt7__cxx1112basic_stringIcSt11char_traitsIcESaIcEEEDpOT_(ptr dead_on_unwind writable sret(%"class.std::__cxx11::basic_string") align 8 %28, ptr noundef nonnull align 1 dereferenceable(137) @.str, ptr noundef nonnull align 1 dereferenceable(2) @.str.1, ptr noundef nonnull align 4 dereferenceable(4) %29, ptr noundef nonnull align 1 dereferenceable(2) @.str.2, ptr noundef nonnull align 1 dereferenceable(45) @.str.11, ptr noundef nonnull align 1 dereferenceable(19) @.str.10, ptr noundef nonnull align 1 dereferenceable(4) @.str.5, ptr noundef nonnull align 4 dereferenceable(4) %26, ptr noundef nonnull align 1 dereferenceable(30) @.str.12, ptr noundef nonnull align 4 dereferenceable(4) %27)
  invoke void @_ZN10open_spiel15SpielFatalErrorERKNSt7__cxx1112basic_stringIcSt11char_traitsIcESaIcEEE(ptr noundef nonnull align 8 dereferenceable(32) %28) #10
          to label %94 unwind label %95

94:                                               ; preds = %93
  unreachable

95:                                               ; preds = %93
  %96 = landingpad { ptr, i32 }
          cleanup
  %97 = extractvalue { ptr, i32 } %96, 0
  store ptr %97, ptr %13, align 8
  %98 = extractvalue { ptr, i32 } %96, 1
  store i32 %98, ptr %14, align 4
  call void @_ZNSt7__cxx1112basic_stringIcSt11char_traitsIcESaIcEED1Ev(ptr noundef nonnull align 8 dereferenceable(32) %28) #3
  br label %107

99:                                               ; preds = %87
  br label %100

100:                                              ; preds = %99
  %101 = getelementptr inbounds nuw %"struct.open_spiel::chess_common::Square", ptr %30, i32 0, i32 0
  %102 = load i8, ptr %19, align 1
  store i8 %102, ptr %101, align 1
  %103 = getelementptr inbounds nuw %"struct.open_spiel::chess_common::Square", ptr %30, i32 0, i32 1
  %104 = load i8, ptr %20, align 1
  store i8 %104, ptr %103, align 1
  %105 = call i64 @_ZSt9make_pairIN10open_spiel12chess_common6SquareERiESt4pairINSt25__strip_reference_wrapperINSt5decayIT_E4typeEE6__typeENS5_INS6_IT0_E4typeEE6__typeEEOS7_OSC_(ptr noundef nonnull align 1 dereferenceable(2) %30, ptr noundef nonnull align 4 dereferenceable(4) %21)
  store i64 %105, ptr %4, align 4
  %106 = load i64, ptr %4, align 4
  ret i64 %106

107:                                              ; preds = %95, %81, %57, %41
  %108 = load ptr, ptr %13, align 8
  %109 = load i32, ptr %14, align 4
  %110 = insertvalue { ptr, i32 } poison, ptr %108, 0
  %111 = insertvalue { ptr, i32 } %110, i32 %109, 1
  resume { ptr, i32 } %111
}