; Function Attrs: mustprogress uwtable
define range(i64 0, 9223372028264906752) i64 @_ZN10open_spiel12chess_common19DecodeNetworkTargetEiii(i32 noundef %0, i32 noundef %1, i32 noundef %2) local_unnamed_addr #3 personality ptr @__gxx_personality_v0 {
  %4 = alloca i32, align 4
  %5 = alloca i32, align 4
  %6 = alloca %"class.std::__cxx11::basic_string", align 8
  %7 = alloca i32, align 4
  %8 = alloca i32, align 4
  %9 = alloca i32, align 4
  %10 = alloca %"class.std::__cxx11::basic_string", align 8
  %11 = alloca i32, align 4
  %12 = alloca i32, align 4
  %13 = alloca i32, align 4
  %14 = alloca %"class.std::__cxx11::basic_string", align 8
  %15 = alloca i32, align 4
  %16 = alloca i32, align 4
  %17 = alloca i32, align 4
  %18 = alloca %"class.std::__cxx11::basic_string", align 8
  %19 = alloca i32, align 4
  %20 = sdiv i32 %0, %2
  %21 = srem i32 %0, %2
  store i32 %20, ptr %4, align 4
  store i32 0, ptr %5, align 4
  %22 = icmp sgt i32 %20, -1
  br i1 %22, label %27, label %23

23:                                               ; preds = %3
  store i32 132, ptr %7, align 4
  call void @_ZN10open_spiel8internal11SpielStrCatIJRA137_KcRA2_S2_iS6_RA8_S2_RA4_S2_SA_RiRA7_S2_SB_EEENSt7__cxx1112basic_stringIcSt11char_traitsIcESaIcEEEDpOT_(ptr dead_on_unwind nonnull writable sret(%"class.std::__cxx11::basic_string") align 8 %6, ptr noundef nonnull align 1 dereferenceable(137) @.str, ptr noundef nonnull align 1 dereferenceable(2) @.str.1, ptr noundef nonnull align 4 dereferenceable(4) %7, ptr noundef nonnull align 1 dereferenceable(2) @.str.2, ptr noundef nonnull align 1 dereferenceable(8) @.str.3, ptr noundef nonnull align 1 dereferenceable(4) @.str.4, ptr noundef nonnull align 1 dereferenceable(4) @.str.5, ptr noundef nonnull align 4 dereferenceable(4) %4, ptr noundef nonnull align 1 dereferenceable(7) @.str.6, ptr noundef nonnull align 4 dereferenceable(4) %5)
  invoke void @_ZN10open_spiel15SpielFatalErrorERKNSt7__cxx1112basic_stringIcSt11char_traitsIcESaIcEEE(ptr noundef nonnull align 8 dereferenceable(32) %6) #9
          to label %24 unwind label %25

24:                                               ; preds = %23
  unreachable

25:                                               ; preds = %23
  %26 = landingpad { ptr, i32 }
          cleanup
  br label %51

27:                                               ; preds = %3
  store i32 %20, ptr %8, align 4
  %28 = mul nsw i32 %1, %1
  store i32 %28, ptr %9, align 4
  %29 = icmp slt i32 %20, %28
  br i1 %29, label %34, label %30

30:                                               ; preds = %27
  store i32 133, ptr %11, align 4
  call void @_ZN10open_spiel8internal11SpielStrCatIJRA137_KcRA2_S2_iS6_RA29_S2_RA4_S2_SA_RiS8_SB_EEENSt7__cxx1112basic_stringIcSt11char_traitsIcESaIcEEEDpOT_(ptr dead_on_unwind nonnull writable sret(%"class.std::__cxx11::basic_string") align 8 %10, ptr noundef nonnull align 1 dereferenceable(137) @.str, ptr noundef nonnull align 1 dereferenceable(2) @.str.1, ptr noundef nonnull align 4 dereferenceable(4) %11, ptr noundef nonnull align 1 dereferenceable(2) @.str.2, ptr noundef nonnull align 1 dereferenceable(29) @.str.7, ptr noundef nonnull align 1 dereferenceable(4) @.str.4, ptr noundef nonnull align 1 dereferenceable(4) @.str.5, ptr noundef nonnull align 4 dereferenceable(4) %8, ptr noundef nonnull align 1 dereferenceable(29) @.str.8, ptr noundef nonnull align 4 dereferenceable(4) %9)
  invoke void @_ZN10open_spiel15SpielFatalErrorERKNSt7__cxx1112basic_stringIcSt11char_traitsIcESaIcEEE(ptr noundef nonnull align 8 dereferenceable(32) %10) #9
          to label %31 unwind label %32

31:                                               ; preds = %30
  unreachable

32:                                               ; preds = %30
  %33 = landingpad { ptr, i32 }
          cleanup
  br label %51

34:                                               ; preds = %27
  store i32 %21, ptr %12, align 4
  store i32 0, ptr %13, align 4
  %35 = icmp sgt i32 %21, -1
  br i1 %35, label %40, label %36

36:                                               ; preds = %34
  store i32 137, ptr %15, align 4
  call void @_ZN10open_spiel8internal11SpielStrCatIJRA137_KcRA2_S2_iS6_RA23_S2_RA19_S2_RA4_S2_RiRA7_S2_SD_EEENSt7__cxx1112basic_stringIcSt11char_traitsIcESaIcEEEDpOT_(ptr dead_on_unwind nonnull writable sret(%"class.std::__cxx11::basic_string") align 8 %14, ptr noundef nonnull align 1 dereferenceable(137) @.str, ptr noundef nonnull align 1 dereferenceable(2) @.str.1, ptr noundef nonnull align 4 dereferenceable(4) %15, ptr noundef nonnull align 1 dereferenceable(2) @.str.2, ptr noundef nonnull align 1 dereferenceable(23) @.str.9, ptr noundef nonnull align 1 dereferenceable(19) @.str.10, ptr noundef nonnull align 1 dereferenceable(4) @.str.5, ptr noundef nonnull align 4 dereferenceable(4) %12, ptr noundef nonnull align 1 dereferenceable(7) @.str.6, ptr noundef nonnull align 4 dereferenceable(4) %13)
  invoke void @_ZN10open_spiel15SpielFatalErrorERKNSt7__cxx1112basic_stringIcSt11char_traitsIcESaIcEEE(ptr noundef nonnull align 8 dereferenceable(32) %14) #9
          to label %37 unwind label %38

37:                                               ; preds = %36
  unreachable

38:                                               ; preds = %36
  %39 = landingpad { ptr, i32 }
          cleanup
  br label %51

40:                                               ; preds = %34
  store i32 %21, ptr %16, align 4
  store i32 %2, ptr %17, align 4
  %41 = icmp sgt i32 %2, -1
  br i1 %41, label %46, label %42

42:                                               ; preds = %40
  store i32 138, ptr %19, align 4
  call void @_ZN10open_spiel8internal11SpielStrCatIJRA137_KcRA2_S2_iS6_RA45_S2_RA19_S2_RA4_S2_RiRA30_S2_SD_EEENSt7__cxx1112basic_stringIcSt11char_traitsIcESaIcEEEDpOT_(ptr dead_on_unwind nonnull writable sret(%"class.std::__cxx11::basic_string") align 8 %18, ptr noundef nonnull align 1 dereferenceable(137) @.str, ptr noundef nonnull align 1 dereferenceable(2) @.str.1, ptr noundef nonnull align 4 dereferenceable(4) %19, ptr noundef nonnull align 1 dereferenceable(2) @.str.2, ptr noundef nonnull align 1 dereferenceable(45) @.str.11, ptr noundef nonnull align 1 dereferenceable(19) @.str.10, ptr noundef nonnull align 1 dereferenceable(4) @.str.5, ptr noundef nonnull align 4 dereferenceable(4) %16, ptr noundef nonnull align 1 dereferenceable(30) @.str.12, ptr noundef nonnull align 4 dereferenceable(4) %17)
  invoke void @_ZN10open_spiel15SpielFatalErrorERKNSt7__cxx1112basic_stringIcSt11char_traitsIcESaIcEEE(ptr noundef nonnull align 8 dereferenceable(32) %18) #9
          to label %43 unwind label %44

43:                                               ; preds = %42
  unreachable

44:                                               ; preds = %42
  %45 = landingpad { ptr, i32 }
          cleanup
  br label %51

46:                                               ; preds = %40
  %47 = srem i32 %20, %1
  %48 = zext nneg i32 %47 to i64
  %49 = sdiv i32 %20, %1
  %.sroa.2.0.insert.ext = shl nuw nsw i64 %48, 8
  %50 = and i32 %49, 255
  %.sroa.0.0.insert.ext = zext nneg i32 %50 to i64
  %.sroa.22.0.insert.ext.i = zext nneg i32 %21 to i64
  %.sroa.22.0.insert.shift.i = shl nuw nsw i64 %.sroa.22.0.insert.ext.i, 32
  %.sroa.2.0.insert.ext.masked = and i64 %.sroa.2.0.insert.ext, 65280
  %.sroa.0.0.insert.ext.i = or disjoint i64 %.sroa.2.0.insert.ext.masked, %.sroa.0.0.insert.ext
  %.sroa.0.0.insert.insert.i = or disjoint i64 %.sroa.0.0.insert.ext.i, %.sroa.22.0.insert.shift.i
  ret i64 %.sroa.0.0.insert.insert.i

51:                                               ; preds = %44, %38, %32, %25
  %.sink = phi ptr [ %18, %44 ], [ %14, %38 ], [ %10, %32 ], [ %6, %25 ]
  %.pn = phi { ptr, i32 } [ %45, %44 ], [ %39, %38 ], [ %33, %32 ], [ %26, %25 ]
  call void @_ZNSt7__cxx1112basic_stringIcSt11char_traitsIcESaIcEED1Ev(ptr noundef nonnull align 8 dereferenceable(32) %.sink) #10
  resume { ptr, i32 } %.pn
}